target datalayout = "e-m:e-p270:32:32-p271:32:32-p272:64:64-i64:64-i128:128-f80:128-n8:16:32:64-S128"
target triple = "x86_64-pc-linux-gnu"

%struct.point_t = type { float, float }

; Function Attrs: nounwind uwtable
define dso_local void @draw_cross(ptr noundef %0, <2 x float> %1) #3 {
  %3 = alloca %struct.point_t, align 4
  %4 = alloca ptr, align 8
  store <2 x float> %1, ptr %3, align 4
  store ptr %0, ptr %4, align 8, !tbaa !7
  %5 = load ptr, ptr %4, align 8, !tbaa !7
  %6 = getelementptr inbounds nuw %struct.point_t, ptr %3, i32 0, i32 0
  %7 = load float, ptr %6, align 4, !tbaa !16
  %8 = fsub reassoc nsz arcp contract afn float %7, 1.000000e+01
  %9 = fpext reassoc nsz arcp contract afn float %8 to double
  %10 = getelementptr inbounds nuw %struct.point_t, ptr %3, i32 0, i32 1
  %11 = load float, ptr %10, align 4, !tbaa !19
  %12 = fpext reassoc nsz arcp contract afn float %11 to double
  call void @cairo_move_to(ptr noundef %5, double noundef %9, double noundef %12)
  %13 = load ptr, ptr %4, align 8, !tbaa !7
  %14 = getelementptr inbounds nuw %struct.point_t, ptr %3, i32 0, i32 0
  %15 = load float, ptr %14, align 4, !tbaa !16
  %16 = fadd reassoc nsz arcp contract afn float %15, 1.000000e+01
  %17 = fpext reassoc nsz arcp contract afn float %16 to double
  %18 = getelementptr inbounds nuw %struct.point_t, ptr %3, i32 0, i32 1
  %19 = load float, ptr %18, align 4, !tbaa !19
  %20 = fpext reassoc nsz arcp contract afn float %19 to double
  call void @cairo_line_to(ptr noundef %13, double noundef %17, double noundef %20)
  %21 = load ptr, ptr %4, align 8, !tbaa !7
  %22 = getelementptr inbounds nuw %struct.point_t, ptr %3, i32 0, i32 0
  %23 = load float, ptr %22, align 4, !tbaa !16
  %24 = fpext reassoc nsz arcp contract afn float %23 to double
  %25 = getelementptr inbounds nuw %struct.point_t, ptr %3, i32 0, i32 1
  %26 = load float, ptr %25, align 4, !tbaa !19
  %27 = fsub reassoc nsz arcp contract afn float %26, 1.000000e+01
  %28 = fpext reassoc nsz arcp contract afn float %27 to double
  call void @cairo_move_to(ptr noundef %21, double noundef %24, double noundef %28)
  %29 = load ptr, ptr %4, align 8, !tbaa !7
  %30 = getelementptr inbounds nuw %struct.point_t, ptr %3, i32 0, i32 0
  %31 = load float, ptr %30, align 4, !tbaa !16
  %32 = fpext reassoc nsz arcp contract afn float %31 to double
  %33 = getelementptr inbounds nuw %struct.point_t, ptr %3, i32 0, i32 1
  %34 = load float, ptr %33, align 4, !tbaa !19
  %35 = fadd reassoc nsz arcp contract afn float %34, 1.000000e+01
  %36 = fpext reassoc nsz arcp contract afn float %35 to double
  call void @cairo_line_to(ptr noundef %29, double noundef %32, double noundef %36)
  ret void
}