; Function Attrs: nounwind uwtable
define dso_local void @draw_cross(ptr noundef %0, <2 x float> %1) local_unnamed_addr #3 {
  %.sroa.0.0.vec.extract = extractelement <2 x float> %1, i64 0
  %3 = fadd reassoc nsz arcp contract afn float %.sroa.0.0.vec.extract, -1.000000e+01
  %4 = fpext reassoc nsz arcp contract afn float %3 to double
  %.sroa.0.4.vec.extract = extractelement <2 x float> %1, i64 1
  %5 = fpext reassoc nsz arcp contract afn float %.sroa.0.4.vec.extract to double
  tail call void @cairo_move_to(ptr noundef %0, double noundef %4, double noundef %5) #8
  %6 = fadd reassoc nsz arcp contract afn float %.sroa.0.0.vec.extract, 1.000000e+01
  %7 = fpext reassoc nsz arcp contract afn float %6 to double
  tail call void @cairo_line_to(ptr noundef %0, double noundef %7, double noundef %5) #8
  %8 = fpext reassoc nsz arcp contract afn float %.sroa.0.0.vec.extract to double
  %9 = fadd reassoc nsz arcp contract afn float %.sroa.0.4.vec.extract, -1.000000e+01
  %10 = fpext reassoc nsz arcp contract afn float %9 to double
  tail call void @cairo_move_to(ptr noundef %0, double noundef %8, double noundef %10) #8
  %11 = fadd reassoc nsz arcp contract afn float %.sroa.0.4.vec.extract, 1.000000e+01
  %12 = fpext reassoc nsz arcp contract afn float %11 to double
  tail call void @cairo_line_to(ptr noundef %0, double noundef %8, double noundef %12) #8
  ret void
}